Certificate:
    Data:
        Version: 3 (0x2)
        Serial Number: 1 (0x1)
    Signature Algorithm: md5WithRSAEncryption
        Issuer: C=FR, ST=PARIS, L=Paris, CN=Yoyodine CA/emailAddress=foo@foobar.com
        Validity
            Not Before: Sep 30 10:10:54 2014 GMT
            Not After : Sep 30 10:10:54 2026 GMT
        Subject: C=US, ST=FR, L=Paris, CN=Foobar/emailAddress=foo@foobar.com
        Subject Public Key Info:
            Public Key Algorithm: rsaEncryption
                Public-Key: (2048 bit)
                Modulus:
                    00:bd:be:fa:ba:f7:e4:c1:64:e8:3b:c1:e8:70:e0:
                    77:6f:f3:5a:df:63:9b:13:3d:d1:c1:38:c6:5d:f8:
                    d1:b0:b0:df:8a:62:40:35:23:d9:de:5d:73:64:3b:
                    82:26:51:86:23:8b:f9:ce:96:b2:0e:f9:01:ce:a3:
                    5e:c0:82:81:de:c1:fd:86:38:d4:52:c2:a4:d6:b4:
                    ea:d4:0d:04:1b:dd:55:0c:d9:12:2b:cb:f3:ba:66:
                    6a:b0:d1:f6:c2:00:64:32:f7:56:e2:75:ca:8b:c9:
                    47:6e:54:d7:e5:13:88:97:0d:81:d4:bc:a8:f6:8e:
                    90:a1:15:32:1e:28:96:22:f1:08:7c:bc:9c:b5:97:
                    d2:e6:d2:8a:a5:86:9c:58:1f:82:1e:f7:f0:fb:9e:
                    3c:4e:57:3d:27:ab:64:97:38:a7:97:ad:d7:6c:12:
                    cf:47:c6:75:1f:70:bf:d2:11:81:90:7c:67:0c:01:
                    61:1c:a1:75:32:98:d9:26:3d:03:2b:07:f1:6c:63:
                    06:5c:34:b6:35:f5:a7:5f:d0:39:32:2e:9c:b2:42:
                    7a:f3:fb:c4:a6:a2:0f:15:18:aa:5a:d2:fc:93:fd:
                    b4:37:0a:3e:07:2d:eb:06:a1:12:9c:63:06:2d:e0:
                    f4:94:d8:77:57:bd:b1:24:79:06:22:fc:8d:52:ba:
                    9e:21
                Exponent: 65537 (0x10001)
        X509v3 extensions:
            X509v3 Subject Key Identifier: 
                14:84:CD:04:6F:21:3B:39:D0:25:DE:E7:8B:9F:03:0F:2A:53:09:F2
            X509v3 Authority Key Identifier: 
                keyid:31:28:AA:82:9F:5A:99:D8:20:63:8E:E6:A1:D4:F9:83:AC:0C:B2:5B

            X509v3 Basic Constraints: 
                CA:FALSE
            X509v3 Key Usage: 
                Digital Signature, Non Repudiation, Key Encipherment
    Signature Algorithm: md5WithRSAEncryption
         08:25:23:a7:80:df:9d:07:f3:d1:e5:42:b4:f4:f7:de:ec:84:
         69:0f:4a:dd:db:60:3b:7c:ef:27:a9:88:9a:77:2f:17:d7:74:
         12:1c:c8:f0:14:b8:c2:0b:fc:9a:87:41:26:f6:5e:e7:8d:85:
         cd:3e:9e:da:5a:cb:c0:de:d9:42:bf:88:34:66:b0:c7:43:ed:
         f3:b3:af:19:db:f0:e7:b5:08:90:81:6c:1d:3c:de:cf:e4:7c:
         09:84:43:5b:b8:65:f0:f3:50:ff:76:98:39:2e:7f:92:84:be:
         34:d9:ac:8d:78:fc:06:3a:0f:fc:2c:f9:0d:12:c6:a3:15:a2:
         14:ef:dd:33:a4:ba:5d:f6:d6:90:2e:04:2c:3c:80:27:93:bc:
         6d:76:b9:c6:03:01:1f:0c:b5:e2:46:de:61:2b:49:62:a1:5b:
         42:ec:a2:37:d8:79:b7:05:74:84:11:93:fa:b7:f9:35:da:ea:
         ee:ff:b0:50:8a:67:33:b0:d9:d9:b1:41:bf:13:75:85:8c:58:
         43:4d:8a:a4:6e:ad:b5:a4:36:31:24:12:9e:c2:ea:68:17:ac:
         3e:fb:ba:74:16:60:6d:d5:14:0b:8b:52:db:a3:79:9d:e4:02:
         fc:bc:9e:fb:d2:c6:87:3e:fb:3f:1d:62:62:0c:58:43:f3:fe:
         e8:b7:d8:bd:db:f7:0c:2e:f5:23:00:93:43:ec:ea:da:6b:d4:
         16:b8:94:9f:5e:44:c2:05:cb:26:a4:21:26:45:00:39:27:10:
         cb:28:b3:27:c1:f0:2a:95:36:cc:b2:f8:ab:9b:0b:1f:a6:01:
         50:5e:c9:36:9a:10:83:70:bb:aa:b2:8d:9e:25:8e:ea:5c:2c:
         4b:70:4b:d9:9e:2c:d0:59:62:20:d8:17:26:39:9c:22:f9:71:
         98:6f:c4:f5:92:ff:71:0e:68:86:f5:34:4f:f9:e8:32:c0:65:
         55:35:00:cc:90:af:3d:a8:cd:7b:b0:1a:26:4f:91:4c:6c:b6:
         52:1c:62:a7:1d:cd:6e:7d:ad:22:2f:a1:1c:c8:5c:9f:72:96:
         00:6d:18:c9:a1:40:cf:9c:d2:c4:60:ca:01:ec:e3:cb:98:04:
         19:fd:e2:fb:90:7f:87:ad:c8:07:8a:8f:47:12:b9:3f:8c:95:
         0e:01:08:49:bf:fb:7c:d5:be:db:53:9c:6c:ea:9b:e4:8c:4e:
         92:48:96:01:b7:8c:82:46:c9:ab:0f:d7:4a:bc:73:50:01:d7:
         21:13:c9:2c:84:af:32:fa:cb:a1:cb:7d:74:1a:ab:49:25:34:
         fd:5e:b7:3d:72:de:56:0b:74:1a:fa:9a:cd:91:dd:42:e1:d6:
         9c:82:8b:12:25:79:75:21
-----BEGIN CERTIFICATE-----
MIIEkTCCAnmgAwIBAgIBATANBgkqhkiG9w0BAQQFADBiMQswCQYDVQQGEwJGUjEO
MAwGA1UECAwFUEFSSVMxDjAMBgNVBAcMBVBhcmlzMRQwEgYDVQQDDAtZb3lvZGlu
ZSBDQTEdMBsGCSqGSIb3DQEJARYOZm9vQGZvb2Jhci5jb20wHhcNMTQwOTMwMTAx
MDU0WhcNMjYwOTMwMTAxMDU0WjBaMQswCQYDVQQGEwJVUzELMAkGA1UECAwCRlIx
DjAMBgNVBAcMBVBhcmlzMQ8wDQYDVQQDDAZGb29iYXIxHTAbBgkqhkiG9w0BCQEW
DmZvb0Bmb29iYXIuY29tMIIBIjANBgkqhkiG9w0BAQEFAAOCAQ8AMIIBCgKCAQEA
vb76uvfkwWToO8HocOB3b/Na32ObEz3RwTjGXfjRsLDfimJANSPZ3l1zZDuCJlGG
I4v5zpayDvkBzqNewIKB3sH9hjjUUsKk1rTq1A0EG91VDNkSK8vzumZqsNH2wgBk
MvdW4nXKi8lHblTX5ROIlw2B1Lyo9o6QoRUyHiiWIvEIfLyctZfS5tKKpYacWB+C
Hvfw+548Tlc9J6tklzinl63XbBLPR8Z1H3C/0hGBkHxnDAFhHKF1MpjZJj0DKwfx
bGMGXDS2NfWnX9A5Mi6cskJ68/vEpqIPFRiqWtL8k/20Nwo+By3rBqESnGMGLeD0
lNh3V72xJHkGIvyNUrqeIQIDAQABo1owWDAdBgNVHQ4EFgQUFITNBG8hOznQJd7n
i58DDypTCfIwHwYDVR0jBBgwFoAUMSiqgp9amdggY47modT5g6wMslswCQYDVR0T
BAIwADALBgNVHQ8EBAMCBeAwDQYJKoZIhvcNAQEEBQADggIBAAglI6eA350H89Hl
QrT0997shGkPSt3bYDt87yepiJp3LxfXdBIcyPAUuMIL/JqHQSb2XueNhc0+ntpa
y8De2UK/iDRmsMdD7fOzrxnb8Oe1CJCBbB083s/kfAmEQ1u4ZfDzUP92mDkuf5KE
vjTZrI14/AY6D/ws+Q0SxqMVohTv3TOkul321pAuBCw8gCeTvG12ucYDAR8MteJG
3mErSWKhW0LsojfYebcFdIQRk/q3+TXa6u7/sFCKZzOw2dmxQb8TdYWMWENNiqRu
rbWkNjEkEp7C6mgXrD77unQWYG3VFAuLUtujeZ3kAvy8nvvSxoc++z8dYmIMWEPz
/ui32L3b9wwu9SMAk0Ps6tpr1Ba4lJ9eRMIFyyakISZFADknEMsosyfB8CqVNsyy
+KubCx+mAVBeyTaaEINwu6qyjZ4ljupcLEtwS9meLNBZYiDYFyY5nCL5cZhvxPWS
/3EOaIb1NE/56DLAZVU1AMyQrz2ozXuwGiZPkUxstlIcYqcdzW59rSIvoRzIXJ9y
lgBtGMmhQM+c0sRgygHs48uYBBn94vuQf4etyAeKj0cSuT+MlQ4BCEm/+3zVvttT
nGzqm+SMTpJIlgG3jIJGyasP10q8c1AB1yETySyErzL6y6HLfXQaq0klNP1etz1y
3lYLdBr6ms2R3ULh1pyCixIleXUh
-----END CERTIFICATE-----
